; Function Attrs: mustprogress uwtable
define hidden void @_ZNK3sls7context18collect_statisticsER10statistics(ptr noundef nonnull readonly align 8 captures(none) dereferenceable(321) %0, ptr noundef nonnull align 8 dereferenceable(16) %1) local_unnamed_addr #4 align 2 {
  %3 = getelementptr inbounds nuw i8, ptr %0, i64 16
  %4 = load ptr, ptr %3, align 8, !tbaa !49
  %5 = icmp eq ptr %4, null
  br i1 %5, label %._crit_edge, label %_ZNK17scoped_ptr_vectorIN3sls6pluginEE3endEv.exit

_ZNK17scoped_ptr_vectorIN3sls6pluginEE3endEv.exit: ; preds = %2
  %6 = getelementptr inbounds i8, ptr %4, i64 -4
  %7 = load i32, ptr %6, align 4, !tbaa !58
  %8 = zext i32 %7 to i64
  %9 = getelementptr inbounds nuw ptr, ptr %4, i64 %8
  %.not15 = icmp eq i32 %7, 0
  br i1 %.not15, label %._crit_edge, label %.lr.ph

._crit_edge:                                      ; preds = %21, %2, %_ZNK17scoped_ptr_vectorIN3sls6pluginEE3endEv.exit
  %10 = getelementptr inbounds nuw i8, ptr %0, i64 288
  %11 = load i32, ptr %10, align 8, !tbaa !160
  tail call void @_ZN10statistics6updateEPKcj(ptr noundef nonnull align 8 dereferenceable(16) %1, ptr noundef nonnull @.str.20, i32 noundef %11)
  %12 = getelementptr inbounds nuw i8, ptr %0, i64 292
  %13 = load i32, ptr %12, align 4, !tbaa !162
  tail call void @_ZN10statistics6updateEPKcj(ptr noundef nonnull align 8 dereferenceable(16) %1, ptr noundef nonnull @.str.21, i32 noundef %13)
  %14 = getelementptr inbounds nuw i8, ptr %0, i64 296
  %15 = load i32, ptr %14, align 8, !tbaa !284
  tail call void @_ZN10statistics6updateEPKcj(ptr noundef nonnull align 8 dereferenceable(16) %1, ptr noundef nonnull @.str.22, i32 noundef %15)
  ret void

.lr.ph:                                           ; preds = %_ZNK17scoped_ptr_vectorIN3sls6pluginEE3endEv.exit, %21
  %.016 = phi ptr [ %22, %21 ], [ %4, %_ZNK17scoped_ptr_vectorIN3sls6pluginEE3endEv.exit ]
  %16 = load ptr, ptr %.016, align 8, !tbaa !70
  %.not14 = icmp eq ptr %16, null
  br i1 %.not14, label %21, label %17

17:                                               ; preds = %.lr.ph
  %18 = load ptr, ptr %16, align 8, !tbaa !3
  %19 = getelementptr inbounds nuw i8, ptr %18, i64 144
  %20 = load ptr, ptr %19, align 8
  tail call void %20(ptr noundef nonnull align 8 dereferenceable(28) %16, ptr noundef nonnull align 8 dereferenceable(16) %1)
  br label %21

21:                                               ; preds = %17, %.lr.ph
  %22 = getelementptr inbounds nuw i8, ptr %.016, i64 8
  %.not = icmp eq ptr %22, %9
  br i1 %.not, label %._crit_edge, label %.lr.ph
}